target datalayout = "e-m:e-p270:32:32-p271:32:32-p272:64:64-i64:64-i128:128-f80:128-n8:16:32:64-S128"
target triple = "x86_64-pc-linux-gnu"

%struct.stat = type { i64, i64, i64, i32, i32, i32, i32, i64, i64, i64, i64, %struct.timespec, %struct.timespec, %struct.timespec, [3 x i64] }
%struct.timespec = type { i64, i64 }

@.str.54 = private unnamed_addr constant [3 x i8] c"rb\00", align 1

; Function Attrs: nounwind uwtable
define internal ptr @openChrSource(ptr noundef %0) #0 {
  %2 = alloca ptr, align 8
  %3 = alloca ptr, align 8
  %4 = alloca %struct.stat, align 8
  %5 = alloca i32, align 4
  %6 = alloca i32, align 4
  store ptr %0, ptr %3, align 8, !tbaa !36
  call void @llvm.lifetime.start.p0(i64 144, ptr %4) #14
  call void @llvm.memset.p0.i64(ptr align 8 %4, i8 0, i64 144, i1 false)
  call void @llvm.lifetime.start.p0(i64 4, ptr %5) #14
  %7 = load ptr, ptr %3, align 8, !tbaa !36
  %8 = call i32 @stat64(ptr noundef %7, ptr noundef %4) #14
  store i32 %8, ptr %5, align 4, !tbaa !3
  %9 = load i32, ptr %5, align 4, !tbaa !3
  %10 = icmp ne i32 %9, 0
  br i1 %10, label %11, label %12

11:                                               ; preds = %1
  store ptr null, ptr %2, align 8
  store i32 1, ptr %6, align 4
  br label %31

12:                                               ; preds = %1
  %13 = getelementptr inbounds nuw %struct.stat, ptr %4, i32 0, i32 3
  %14 = load i32, ptr %13, align 8, !tbaa !716
  %15 = and i32 %14, 61440
  %16 = icmp eq i32 %15, 32768
  br i1 %16, label %27, label %17

17:                                               ; preds = %12
  %18 = getelementptr inbounds nuw %struct.stat, ptr %4, i32 0, i32 3
  %19 = load i32, ptr %18, align 8, !tbaa !716
  %20 = and i32 %19, 61440
  %21 = icmp eq i32 %20, 4096
  br i1 %21, label %27, label %22

22:                                               ; preds = %17
  %23 = getelementptr inbounds nuw %struct.stat, ptr %4, i32 0, i32 3
  %24 = load i32, ptr %23, align 8, !tbaa !716
  %25 = and i32 %24, 61440
  %26 = icmp eq i32 %25, 8192
  br i1 %26, label %27, label %30

27:                                               ; preds = %22, %17, %12
  %28 = load ptr, ptr %3, align 8, !tbaa !36
  %29 = call noalias ptr @fopen64(ptr noundef %28, ptr noundef @.str.54)
  store ptr %29, ptr %2, align 8
  store i32 1, ptr %6, align 4
  br label %31

30:                                               ; preds = %22
  store ptr null, ptr %2, align 8
  store i32 1, ptr %6, align 4
  br label %31

31:                                               ; preds = %30, %27, %11
  call void @llvm.lifetime.end.p0(i64 4, ptr %5) #14
  call void @llvm.lifetime.end.p0(i64 144, ptr %4) #14
  %32 = load ptr, ptr %2, align 8
  ret ptr %32
}