; Function Attrs: nofree nounwind uwtable
define internal fastcc noalias noundef ptr @openChrSource(ptr noundef readonly captures(none) %0) unnamed_addr #17 {
  %2 = alloca %struct.stat, align 8
  call void @llvm.lifetime.start.p0(i64 144, ptr nonnull %2) #43
  call void @llvm.memset.p0.i64(ptr noundef nonnull align 8 dereferenceable(144) %2, i8 0, i64 144, i1 false)
  %3 = call i32 @stat64(ptr noundef %0, ptr noundef nonnull %2) #43
  %.not = icmp eq i32 %3, 0
  br i1 %.not, label %4, label %10

4:                                                ; preds = %1
  %5 = getelementptr inbounds nuw i8, ptr %2, i64 24
  %6 = load i32, ptr %5, align 8, !tbaa !128
  %7 = trunc i32 %6 to i16
  %trunc = and i16 %7, -4096
  switch i16 %trunc, label %10 [
    i16 -32768, label %8
    i16 4096, label %8
    i16 8192, label %8
  ]

8:                                                ; preds = %4, %4, %4
  %9 = tail call noalias ptr @fopen64(ptr noundef %0, ptr noundef nonnull @.str.54)
  br label %10

10:                                               ; preds = %4, %1, %8
  %.0 = phi ptr [ %9, %8 ], [ null, %1 ], [ null, %4 ]
  call void @llvm.lifetime.end.p0(i64 144, ptr nonnull %2) #43
  ret ptr %.0
}